target datalayout = "e-m:e-p270:32:32-p271:32:32-p272:64:64-i64:64-i128:128-f80:128-n8:16:32:64-S128"
target triple = "x86_64-pc-linux-gnu"

@SDL_hidapi_ignored_devices = internal global ptr null, align 8

; Function Attrs: nounwind uwtable
define internal void @IgnoredDevicesChanged(ptr noundef %0, ptr noundef %1, ptr noundef %2, ptr noundef %3) #0 {
  %5 = alloca ptr, align 8
  %6 = alloca ptr, align 8
  %7 = alloca ptr, align 8
  %8 = alloca ptr, align 8
  store ptr %0, ptr %5, align 8
  store ptr %1, ptr %6, align 8
  store ptr %2, ptr %7, align 8
  store ptr %3, ptr %8, align 8
  %9 = load ptr, ptr @SDL_hidapi_ignored_devices, align 8
  %10 = icmp ne ptr %9, null
  br i1 %10, label %11, label %13

11:                                               ; preds = %4
  %12 = load ptr, ptr @SDL_hidapi_ignored_devices, align 8
  call void @SDL_free_REAL(ptr noundef %12)
  br label %13

13:                                               ; preds = %11, %4
  %14 = load ptr, ptr %8, align 8
  %15 = icmp ne ptr %14, null
  br i1 %15, label %16, label %24

16:                                               ; preds = %13
  %17 = load ptr, ptr %8, align 8
  %18 = load i8, ptr %17, align 1
  %19 = sext i8 %18 to i32
  %20 = icmp ne i32 %19, 0
  br i1 %20, label %21, label %24

21:                                               ; preds = %16
  %22 = load ptr, ptr %8, align 8
  %23 = call noalias ptr @SDL_strdup_REAL(ptr noundef %22)
  store ptr %23, ptr @SDL_hidapi_ignored_devices, align 8
  br label %25

24:                                               ; preds = %16, %13
  store ptr null, ptr @SDL_hidapi_ignored_devices, align 8
  br label %25

25:                                               ; preds = %24, %21
  ret void
}