; Function Attrs: nounwind uwtable
define internal void @IgnoredDevicesChanged(ptr readnone captures(none) %0, ptr readnone captures(none) %1, ptr readnone captures(none) %2, ptr noundef %3) #1 {
  %5 = load ptr, ptr @SDL_hidapi_ignored_devices, align 8
  %.not = icmp eq ptr %5, null
  br i1 %.not, label %7, label %6

6:                                                ; preds = %4
  tail call void @SDL_free_REAL(ptr noundef nonnull %5) #22
  br label %7

7:                                                ; preds = %6, %4
  %.not4 = icmp eq ptr %3, null
  br i1 %.not4, label %12, label %8

8:                                                ; preds = %7
  %9 = load i8, ptr %3, align 1
  %.not5 = icmp eq i8 %9, 0
  br i1 %.not5, label %12, label %10

10:                                               ; preds = %8
  %11 = tail call noalias ptr @SDL_strdup_REAL(ptr noundef nonnull %3) #22
  br label %12

12:                                               ; preds = %7, %8, %10
  %storemerge = phi ptr [ %11, %10 ], [ null, %8 ], [ null, %7 ]
  store ptr %storemerge, ptr @SDL_hidapi_ignored_devices, align 8
  ret void
}